; Function Attrs: mustprogress nofree norecurse nosync nounwind willreturn memory(read, inaccessiblemem: none) uwtable
define noundef ptr @_Z18lodepng_chunk_findPhS_PKc(ptr noundef %0, ptr noundef %1, ptr noundef %2) local_unnamed_addr #10 {
  %4 = ptrtoint ptr %1 to i64
  %.not20 = icmp uge ptr %0, %1
  %5 = ptrtoint ptr %0 to i64
  %6 = sub i64 %4, %5
  %7 = icmp slt i64 %6, 12
  %or.cond21 = or i1 %.not20, %7
  br i1 %or.cond21, label %_Z25lodepng_chunk_type_equalsPKhPKc.exit._crit_edge, label %.preheader.lr.ph

.preheader.lr.ph:                                 ; preds = %3
  %8 = ptrtoint ptr %2 to i64
  %9 = getelementptr inbounds nuw i8, ptr %2, i64 1
  %10 = getelementptr inbounds nuw i8, ptr %2, i64 2
  %11 = getelementptr inbounds nuw i8, ptr %2, i64 3
  br label %.preheader

.preheader:                                       ; preds = %.preheader.lr.ph, %_Z18lodepng_chunk_nextPhS_.exit
  %12 = phi i64 [ %6, %.preheader.lr.ph ], [ %93, %_Z18lodepng_chunk_nextPhS_.exit ]
  %.01022 = phi ptr [ %0, %.preheader.lr.ph ], [ %.0.i16, %_Z18lodepng_chunk_nextPhS_.exit ]
  br label %13

13:                                               ; preds = %.preheader, %13
  %.0.i.i = phi ptr [ %15, %13 ], [ %2, %.preheader ]
  %14 = load i8, ptr %.0.i.i, align 1, !tbaa !18
  %.not.i.i = icmp eq i8 %14, 0
  %15 = getelementptr inbounds nuw i8, ptr %.0.i.i, i64 1
  br i1 %.not.i.i, label %_ZL14lodepng_strlenPKc.exit.i, label %13, !llvm.loop !170

_ZL14lodepng_strlenPKc.exit.i:                    ; preds = %13
  %16 = ptrtoint ptr %.0.i.i to i64
  %17 = sub i64 %16, %8
  %.not.i = icmp eq i64 %17, 4
  br i1 %.not.i, label %18, label %_Z25lodepng_chunk_type_equalsPKhPKc.exit.thread

18:                                               ; preds = %_ZL14lodepng_strlenPKc.exit.i
  %19 = getelementptr inbounds nuw i8, ptr %.01022, i64 4
  %20 = load i8, ptr %19, align 1, !tbaa !18
  %21 = zext i8 %20 to i32
  %22 = load i8, ptr %2, align 1, !tbaa !18
  %23 = sext i8 %22 to i32
  %24 = icmp eq i32 %21, %23
  br i1 %24, label %25, label %_Z25lodepng_chunk_type_equalsPKhPKc.exit.thread

25:                                               ; preds = %18
  %26 = getelementptr inbounds nuw i8, ptr %.01022, i64 5
  %27 = load i8, ptr %26, align 1, !tbaa !18
  %28 = zext i8 %27 to i32
  %29 = load i8, ptr %9, align 1, !tbaa !18
  %30 = sext i8 %29 to i32
  %31 = icmp eq i32 %28, %30
  br i1 %31, label %32, label %_Z25lodepng_chunk_type_equalsPKhPKc.exit.thread

32:                                               ; preds = %25
  %33 = getelementptr inbounds nuw i8, ptr %.01022, i64 6
  %34 = load i8, ptr %33, align 1, !tbaa !18
  %35 = zext i8 %34 to i32
  %36 = load i8, ptr %10, align 1, !tbaa !18
  %37 = sext i8 %36 to i32
  %38 = icmp eq i32 %35, %37
  br i1 %38, label %_Z25lodepng_chunk_type_equalsPKhPKc.exit, label %_Z25lodepng_chunk_type_equalsPKhPKc.exit.thread

_Z25lodepng_chunk_type_equalsPKhPKc.exit:         ; preds = %32
  %39 = getelementptr inbounds nuw i8, ptr %.01022, i64 7
  %40 = load i8, ptr %39, align 1, !tbaa !18
  %41 = zext i8 %40 to i32
  %42 = load i8, ptr %11, align 1, !tbaa !18
  %43 = sext i8 %42 to i32
  %.not19 = icmp eq i32 %41, %43
  br i1 %.not19, label %_Z25lodepng_chunk_type_equalsPKhPKc.exit._crit_edge, label %_Z25lodepng_chunk_type_equalsPKhPKc.exit.thread

_Z25lodepng_chunk_type_equalsPKhPKc.exit.thread:  ; preds = %18, %25, %32, %_ZL14lodepng_strlenPKc.exit.i, %_Z25lodepng_chunk_type_equalsPKhPKc.exit
  %44 = load i8, ptr %.01022, align 1, !tbaa !18
  %45 = icmp eq i8 %44, -119
  %46 = getelementptr inbounds nuw i8, ptr %.01022, i64 1
  %47 = load i8, ptr %46, align 1, !tbaa !18
  %48 = icmp eq i8 %47, 80
  %or.cond25.i = select i1 %45, i1 %48, i1 false
  %49 = getelementptr inbounds nuw i8, ptr %.01022, i64 2
  %50 = load i8, ptr %49, align 1, !tbaa !18
  br i1 %or.cond25.i, label %53, label %_Z25lodepng_chunk_type_equalsPKhPKc.exit.thread.._crit_edge.i_crit_edge

_Z25lodepng_chunk_type_equalsPKhPKc.exit.thread.._crit_edge.i_crit_edge: ; preds = %_Z25lodepng_chunk_type_equalsPKhPKc.exit.thread
  %51 = zext i8 %47 to i64
  %52 = shl nuw nsw i64 %51, 16
  br label %._crit_edge.i

53:                                               ; preds = %_Z25lodepng_chunk_type_equalsPKhPKc.exit.thread
  %54 = icmp eq i8 %50, 78
  br i1 %54, label %55, label %._crit_edge.i

55:                                               ; preds = %53
  %56 = getelementptr inbounds nuw i8, ptr %.01022, i64 3
  %57 = load i8, ptr %56, align 1, !tbaa !18
  %58 = icmp eq i8 %57, 71
  br i1 %58, label %59, label %._crit_edge.i

59:                                               ; preds = %55
  %60 = getelementptr inbounds nuw i8, ptr %.01022, i64 4
  %61 = load i8, ptr %60, align 1, !tbaa !18
  %62 = icmp eq i8 %61, 13
  br i1 %62, label %63, label %._crit_edge.i

63:                                               ; preds = %59
  %64 = getelementptr inbounds nuw i8, ptr %.01022, i64 5
  %65 = load i8, ptr %64, align 1, !tbaa !18
  %66 = icmp eq i8 %65, 10
  br i1 %66, label %67, label %._crit_edge.i

67:                                               ; preds = %63
  %68 = getelementptr inbounds nuw i8, ptr %.01022, i64 6
  %69 = load i8, ptr %68, align 1, !tbaa !18
  %70 = icmp eq i8 %69, 26
  br i1 %70, label %71, label %._crit_edge.i

71:                                               ; preds = %67
  %72 = getelementptr inbounds nuw i8, ptr %.01022, i64 7
  %73 = load i8, ptr %72, align 1, !tbaa !18
  %74 = icmp eq i8 %73, 10
  br i1 %74, label %75, label %._crit_edge.i

75:                                               ; preds = %71
  %76 = getelementptr inbounds nuw i8, ptr %.01022, i64 8
  br label %_Z18lodepng_chunk_nextPhS_.exit

._crit_edge.i:                                    ; preds = %_Z25lodepng_chunk_type_equalsPKhPKc.exit.thread.._crit_edge.i_crit_edge, %71, %67, %63, %59, %55, %53
  %77 = phi i8 [ 78, %71 ], [ 78, %67 ], [ 78, %63 ], [ 78, %59 ], [ 78, %55 ], [ %50, %53 ], [ %50, %_Z25lodepng_chunk_type_equalsPKhPKc.exit.thread.._crit_edge.i_crit_edge ]
  %78 = phi i64 [ 5242880, %71 ], [ 5242880, %67 ], [ 5242880, %63 ], [ 5242880, %59 ], [ 5242880, %55 ], [ 5242880, %53 ], [ %52, %_Z25lodepng_chunk_type_equalsPKhPKc.exit.thread.._crit_edge.i_crit_edge ]
  %79 = zext i8 %44 to i64
  %80 = shl nuw nsw i64 %79, 24
  %81 = zext i8 %77 to i64
  %82 = shl nuw nsw i64 %81, 8
  %83 = getelementptr inbounds nuw i8, ptr %.01022, i64 3
  %84 = load i8, ptr %83, align 1, !tbaa !18
  %85 = zext i8 %84 to i64
  %86 = or disjoint i64 %80, %78
  %87 = or disjoint i64 %86, 12
  %88 = add nuw nsw i64 %87, %85
  %89 = add nuw nsw i64 %88, %82
  %90 = icmp samesign ugt i64 %89, %12
  %91 = getelementptr inbounds nuw i8, ptr %.01022, i64 %89
  %spec.select.i = select i1 %90, ptr %1, ptr %91
  br label %_Z18lodepng_chunk_nextPhS_.exit

_Z18lodepng_chunk_nextPhS_.exit:                  ; preds = %75, %._crit_edge.i
  %.0.i16 = phi ptr [ %76, %75 ], [ %spec.select.i, %._crit_edge.i ]
  %.not = icmp uge ptr %.0.i16, %1
  %92 = ptrtoint ptr %.0.i16 to i64
  %93 = sub i64 %4, %92
  %94 = icmp slt i64 %93, 12
  %or.cond = or i1 %.not, %94
  br i1 %or.cond, label %_Z25lodepng_chunk_type_equalsPKhPKc.exit._crit_edge, label %.preheader, !llvm.loop !171

_Z25lodepng_chunk_type_equalsPKhPKc.exit._crit_edge: ; preds = %_Z18lodepng_chunk_nextPhS_.exit, %_Z25lodepng_chunk_type_equalsPKhPKc.exit, %3
  %.0 = phi ptr [ null, %3 ], [ %.01022, %_Z25lodepng_chunk_type_equalsPKhPKc.exit ], [ null, %_Z18lodepng_chunk_nextPhS_.exit ]
  ret ptr %.0
}